target datalayout = "e-m:e-p270:32:32-p271:32:32-p272:64:64-i64:64-i128:128-f80:128-n8:16:32:64-S128"
target triple = "x86_64-unknown-linux-gnu"

%"class.zmq::stream_connecter_base_t" = type { %"class.zmq::own_t.base", %"class.zmq::io_object_t", ptr, i32, ptr, %"class.std::__cxx11::basic_string", ptr, i8, i8, i32, ptr }
%"class.zmq::own_t.base" = type <{ %"class.zmq::object_t.base", [4 x i8], %"struct.zmq::options_t", i8, [7 x i8], %"class.zmq::atomic_counter_t", i64, ptr, %"class.std::set.28", i32 }>
%"class.zmq::object_t.base" = type <{ ptr, ptr, i32 }>
%"struct.zmq::options_t" = type { i32, i32, i64, i8, [256 x i8], i32, i32, i32, i32, i32, i32, i32, i32, i8, %"struct.zmq::atomic_value_t", i32, i32, i32, i32, i32, i32, i64, i32, i32, i8, i32, i8, i8, i8, i8, i8, %"class.std::__cxx11::basic_string", %"class.std::__cxx11::basic_string", %"class.std::__cxx11::basic_string", i32, i32, i32, i32, %"class.std::vector", %"class.std::set", %"class.std::set", %"class.std::set.6", i32, i32, %"class.std::__cxx11::basic_string", %"class.std::__cxx11::basic_string", %"class.std::__cxx11::basic_string", [32 x i8], [32 x i8], [32 x i8], %"class.std::__cxx11::basic_string", %"class.std::__cxx11::basic_string", i32, i32, i8, i32, i8, i32, i8, i16, i32, i32, i32, %"class.std::__cxx11::basic_string", i8, i8, i8, i32, i32, i8, i32, %"class.std::map", i32, %"class.std::__cxx11::basic_string", %"class.std::__cxx11::basic_string", %"class.std::__cxx11::basic_string", %"class.std::__cxx11::basic_string", i8, %"class.std::vector.21", i8, %"class.std::vector.21", i8, %"class.std::vector.21", i8, i32, i8, i32, i32, i32, i32, i32, i8, i32 }
%"struct.zmq::atomic_value_t" = type { %"struct.std::atomic" }
%"struct.std::atomic" = type { %"struct.std::__atomic_base" }
%"struct.std::__atomic_base" = type { i32 }
%"class.std::vector" = type { %"struct.std::_Vector_base" }
%"struct.std::_Vector_base" = type { %"struct.std::_Vector_base<zmq::tcp_address_mask_t, std::allocator<zmq::tcp_address_mask_t>>::_Vector_impl" }
%"struct.std::_Vector_base<zmq::tcp_address_mask_t, std::allocator<zmq::tcp_address_mask_t>>::_Vector_impl" = type { %"struct.std::_Vector_base<zmq::tcp_address_mask_t, std::allocator<zmq::tcp_address_mask_t>>::_Vector_impl_data" }
%"struct.std::_Vector_base<zmq::tcp_address_mask_t, std::allocator<zmq::tcp_address_mask_t>>::_Vector_impl_data" = type { ptr, ptr, ptr }
%"class.std::set" = type { %"class.std::_Rb_tree" }
%"class.std::_Rb_tree" = type { %"struct.std::_Rb_tree<unsigned int, unsigned int, std::_Identity<unsigned int>, std::less<unsigned int>>::_Rb_tree_impl" }
%"struct.std::_Rb_tree<unsigned int, unsigned int, std::_Identity<unsigned int>, std::less<unsigned int>>::_Rb_tree_impl" = type { %"struct.std::_Rb_tree_key_compare", %"struct.std::_Rb_tree_header" }
%"struct.std::_Rb_tree_key_compare" = type { %"struct.std::less" }
%"struct.std::less" = type { i8 }
%"struct.std::_Rb_tree_header" = type { %"struct.std::_Rb_tree_node_base", i64 }
%"struct.std::_Rb_tree_node_base" = type { i32, ptr, ptr, ptr }
%"class.std::set.6" = type { %"class.std::_Rb_tree.7" }
%"class.std::_Rb_tree.7" = type { %"struct.std::_Rb_tree<int, int, std::_Identity<int>, std::less<int>>::_Rb_tree_impl" }
%"struct.std::_Rb_tree<int, int, std::_Identity<int>, std::less<int>>::_Rb_tree_impl" = type { %"struct.std::_Rb_tree_key_compare.11", %"struct.std::_Rb_tree_header" }
%"struct.std::_Rb_tree_key_compare.11" = type { %"struct.std::less.12" }
%"struct.std::less.12" = type { i8 }
%"class.std::map" = type { %"class.std::_Rb_tree.14" }
%"class.std::_Rb_tree.14" = type { %"struct.std::_Rb_tree<std::__cxx11::basic_string<char>, std::pair<const std::__cxx11::basic_string<char>, std::__cxx11::basic_string<char>>, std::_Select1st<std::pair<const std::__cxx11::basic_string<char>, std::__cxx11::basic_string<char>>>, std::less<std::__cxx11::basic_string<char>>>::_Rb_tree_impl" }
%"struct.std::_Rb_tree<std::__cxx11::basic_string<char>, std::pair<const std::__cxx11::basic_string<char>, std::__cxx11::basic_string<char>>, std::_Select1st<std::pair<const std::__cxx11::basic_string<char>, std::__cxx11::basic_string<char>>>, std::less<std::__cxx11::basic_string<char>>>::_Rb_tree_impl" = type { %"struct.std::_Rb_tree_key_compare.18", %"struct.std::_Rb_tree_header" }
%"struct.std::_Rb_tree_key_compare.18" = type { %"struct.std::less.19" }
%"struct.std::less.19" = type { i8 }
%"class.std::vector.21" = type { %"struct.std::_Vector_base.22" }
%"struct.std::_Vector_base.22" = type { %"struct.std::_Vector_base<unsigned char, std::allocator<unsigned char>>::_Vector_impl" }
%"struct.std::_Vector_base<unsigned char, std::allocator<unsigned char>>::_Vector_impl" = type { %"struct.std::_Vector_base<unsigned char, std::allocator<unsigned char>>::_Vector_impl_data" }
%"struct.std::_Vector_base<unsigned char, std::allocator<unsigned char>>::_Vector_impl_data" = type { ptr, ptr, ptr }
%"class.zmq::atomic_counter_t" = type { %"struct.std::atomic.26", [4 x i8] }
%"struct.std::atomic.26" = type { %"struct.std::__atomic_base.27" }
%"struct.std::__atomic_base.27" = type { i32 }
%"class.std::set.28" = type { %"class.std::_Rb_tree.29" }
%"class.std::_Rb_tree.29" = type { %"struct.std::_Rb_tree<zmq::own_t *, zmq::own_t *, std::_Identity<zmq::own_t *>, std::less<zmq::own_t *>>::_Rb_tree_impl" }
%"struct.std::_Rb_tree<zmq::own_t *, zmq::own_t *, std::_Identity<zmq::own_t *>, std::less<zmq::own_t *>>::_Rb_tree_impl" = type { %"struct.std::_Rb_tree_key_compare.33", %"struct.std::_Rb_tree_header" }
%"struct.std::_Rb_tree_key_compare.33" = type { %"struct.std::less.34" }
%"struct.std::less.34" = type { i8 }
%"class.zmq::io_object_t" = type { %"struct.zmq::i_poll_events", ptr }
%"struct.zmq::i_poll_events" = type { ptr }
%"class.std::__cxx11::basic_string" = type { %"struct.std::__cxx11::basic_string<char>::_Alloc_hider", i64, %union.anon }
%"struct.std::__cxx11::basic_string<char>::_Alloc_hider" = type { ptr }
%union.anon = type { i64, [8 x i8] }

@stderr = external global ptr, align 8
@.str.2 = private unnamed_addr constant [113 x i8] c"generated/home/dtcxzyw/WorkSpace/Projects/compilers/llvm-opt-benchmark/bench/libzmq/libzmq/src/ipc_connecter.cpp\00", align 1
@.str.4 = private unnamed_addr constant [12 x i8] c"%s (%s:%d)\0A\00", align 1

; Function Attrs: mustprogress uwtable
define noundef i32 @_ZN3zmq15ipc_connecter_t7connectEv(ptr noundef nonnull align 8 dereferenceable(1544) %this) #0 align 2 {
entry:
  %retval = alloca i32, align 4
  %this.addr = alloca ptr, align 8
  %err = alloca i32, align 4
  %len = alloca i32, align 4
  %rc = alloca i32, align 4
  %errstr = alloca ptr, align 8
  %result = alloca i32, align 4
  store ptr %this, ptr %this.addr, align 8
  %this1 = load ptr, ptr %this.addr, align 8
  store i32 0, ptr %err, align 4
  store i32 4, ptr %len, align 4
  %_s = getelementptr inbounds %"class.zmq::stream_connecter_base_t", ptr %this1, i32 0, i32 3
  %0 = load i32, ptr %_s, align 8
  %call = call i32 @getsockopt(i32 noundef %0, i32 noundef 1, i32 noundef 4, ptr noundef %err, ptr noundef %len) #8
  store i32 %call, ptr %rc, align 4
  %1 = load i32, ptr %rc, align 4
  %cmp = icmp eq i32 %1, -1
  br i1 %cmp, label %if.then, label %if.end7

if.then:                                          ; preds = %entry
  %call2 = call ptr @__errno_location() #9
  %2 = load i32, ptr %call2, align 4
  %cmp3 = icmp eq i32 %2, 92
  br i1 %cmp3, label %if.then4, label %if.end

if.then4:                                         ; preds = %if.then
  %call5 = call ptr @__errno_location() #9
  store i32 0, ptr %call5, align 4
  br label %if.end

if.end:                                           ; preds = %if.then4, %if.then
  %call6 = call ptr @__errno_location() #9
  %3 = load i32, ptr %call6, align 4
  store i32 %3, ptr %err, align 4
  br label %if.end7

if.end7:                                          ; preds = %if.end, %entry
  %4 = load i32, ptr %err, align 4
  %cmp8 = icmp ne i32 %4, 0
  br i1 %cmp8, label %if.then9, label %if.end32

if.then9:                                         ; preds = %if.end7
  %5 = load i32, ptr %err, align 4
  %call10 = call ptr @__errno_location() #9
  store i32 %5, ptr %call10, align 4
  br label %do.body

do.body:                                          ; preds = %if.then9
  %call11 = call ptr @__errno_location() #9
  %6 = load i32, ptr %call11, align 4
  %cmp12 = icmp eq i32 %6, 111
  br i1 %cmp12, label %lor.end, label %lor.lhs.false

lor.lhs.false:                                    ; preds = %do.body
  %call13 = call ptr @__errno_location() #9
  %7 = load i32, ptr %call13, align 4
  %cmp14 = icmp eq i32 %7, 104
  br i1 %cmp14, label %lor.end, label %lor.lhs.false15

lor.lhs.false15:                                  ; preds = %lor.lhs.false
  %call16 = call ptr @__errno_location() #9
  %8 = load i32, ptr %call16, align 4
  %cmp17 = icmp eq i32 %8, 110
  br i1 %cmp17, label %lor.end, label %lor.lhs.false18

lor.lhs.false18:                                  ; preds = %lor.lhs.false15
  %call19 = call ptr @__errno_location() #9
  %9 = load i32, ptr %call19, align 4
  %cmp20 = icmp eq i32 %9, 113
  br i1 %cmp20, label %lor.end, label %lor.lhs.false21

lor.lhs.false21:                                  ; preds = %lor.lhs.false18
  %call22 = call ptr @__errno_location() #9
  %10 = load i32, ptr %call22, align 4
  %cmp23 = icmp eq i32 %10, 101
  br i1 %cmp23, label %lor.end, label %lor.rhs

lor.rhs:                                          ; preds = %lor.lhs.false21
  %call24 = call ptr @__errno_location() #9
  %11 = load i32, ptr %call24, align 4
  %cmp25 = icmp eq i32 %11, 100
  br label %lor.end

lor.end:                                          ; preds = %lor.rhs, %lor.lhs.false21, %lor.lhs.false18, %lor.lhs.false15, %lor.lhs.false, %do.body
  %12 = phi i1 [ true, %lor.lhs.false21 ], [ true, %lor.lhs.false18 ], [ true, %lor.lhs.false15 ], [ true, %lor.lhs.false ], [ true, %do.body ], [ %cmp25, %lor.rhs ]
  %lnot = xor i1 %12, true
  br i1 %lnot, label %if.then26, label %if.end31

if.then26:                                        ; preds = %lor.end
  %call27 = call ptr @__errno_location() #9
  %13 = load i32, ptr %call27, align 4
  %call28 = call ptr @strerror(i32 noundef %13) #8
  store ptr %call28, ptr %errstr, align 8
  %14 = load ptr, ptr @stderr, align 8
  %15 = load ptr, ptr %errstr, align 8
  %call29 = call i32 (ptr, ptr, ...) @fprintf(ptr noundef %14, ptr noundef @.str.4, ptr noundef %15, ptr noundef @.str.2, i32 noundef 149)
  %16 = load ptr, ptr @stderr, align 8
  %call30 = call i32 @fflush(ptr noundef %16)
  %17 = load ptr, ptr %errstr, align 8
  call void @_ZN3zmq9zmq_abortEPKc(ptr noundef %17)
  br label %if.end31

if.end31:                                         ; preds = %if.then26, %lor.end
  br label %do.end

do.end:                                           ; preds = %if.end31
  store i32 -1, ptr %retval, align 4
  br label %return

if.end32:                                         ; preds = %if.end7
  %_s33 = getelementptr inbounds %"class.zmq::stream_connecter_base_t", ptr %this1, i32 0, i32 3
  %18 = load i32, ptr %_s33, align 8
  store i32 %18, ptr %result, align 4
  %_s34 = getelementptr inbounds %"class.zmq::stream_connecter_base_t", ptr %this1, i32 0, i32 3
  store i32 -1, ptr %_s34, align 8
  %19 = load i32, ptr %result, align 4
  store i32 %19, ptr %retval, align 4
  br label %return

return:                                           ; preds = %if.end32, %do.end
  %20 = load i32, ptr %retval, align 4
  ret i32 %20
}