; Function Attrs: mustprogress uwtable
define noundef i32 @_ZN3zmq15ipc_connecter_t7connectEv(ptr nocapture noundef nonnull align 8 dereferenceable(1544) %this) local_unnamed_addr #0 align 2 {
entry:
  %err = alloca i32, align 4
  %len = alloca i32, align 4
  store i32 0, ptr %err, align 4
  store i32 4, ptr %len, align 4
  %_s = getelementptr inbounds i8, ptr %this, i64 1472
  %0 = load i32, ptr %_s, align 8
  %call = call i32 @getsockopt(i32 noundef %0, i32 noundef 1, i32 noundef 4, ptr noundef nonnull %err, ptr noundef nonnull %len) #9
  %cmp = icmp eq i32 %call, -1
  br i1 %cmp, label %if.then, label %if.end7thread-pre-split

if.then:                                          ; preds = %entry
  %call2 = tail call ptr @__errno_location() #11
  %1 = load i32, ptr %call2, align 4
  %cmp3 = icmp eq i32 %1, 92
  br i1 %cmp3, label %if.then4, label %if.end

if.then4:                                         ; preds = %if.then
  store i32 0, ptr %call2, align 4
  br label %if.end

if.end:                                           ; preds = %if.then4, %if.then
  %2 = phi i32 [ 0, %if.then4 ], [ %1, %if.then ]
  store i32 %2, ptr %err, align 4
  br label %if.end7

if.end7thread-pre-split:                          ; preds = %entry
  %.pr = load i32, ptr %err, align 4
  br label %if.end7

if.end7:                                          ; preds = %if.end7thread-pre-split, %if.end
  %3 = phi i32 [ %.pr, %if.end7thread-pre-split ], [ %2, %if.end ]
  %cmp8.not = icmp eq i32 %3, 0
  br i1 %cmp8.not, label %if.end32, label %if.then9

if.then9:                                         ; preds = %if.end7
  %call10 = tail call ptr @__errno_location() #11
  store i32 %3, ptr %call10, align 4
  %switch.tableidx = add i32 %3, -100
  %4 = icmp ult i32 %switch.tableidx, 14
  br i1 %4, label %switch.hole_check, label %lor.rhs

lor.rhs:                                          ; preds = %switch.hole_check, %if.then9
  %call28 = call ptr @strerror(i32 noundef %3) #9
  %5 = load ptr, ptr @stderr, align 8
  %call29 = call i32 (ptr, ptr, ...) @fprintf(ptr noundef %5, ptr noundef nonnull @.str.4, ptr noundef %call28, ptr noundef nonnull @.str.2, i32 noundef 149) #10
  %6 = load ptr, ptr @stderr, align 8
  %call30 = call i32 @fflush(ptr noundef %6)
  call void @_ZN3zmq9zmq_abortEPKc(ptr noundef %call28)
  br label %return

if.end32:                                         ; preds = %if.end7
  %7 = load i32, ptr %_s, align 8
  store i32 -1, ptr %_s, align 8
  br label %return

switch.hole_check:                                ; preds = %if.then9
  %switch.maskindex = trunc i32 %switch.tableidx to i16
  %switch.shifted = lshr i16 11283, %switch.maskindex
  %8 = and i16 %switch.shifted, 1
  %switch.lobit.not = icmp eq i16 %8, 0
  br i1 %switch.lobit.not, label %lor.rhs, label %return

return:                                           ; preds = %switch.hole_check, %lor.rhs, %if.end32
  %retval.0 = phi i32 [ %7, %if.end32 ], [ -1, %lor.rhs ], [ -1, %switch.hole_check ]
  ret i32 %retval.0
}